target datalayout = "e-m:e-p270:32:32-p271:32:32-p272:64:64-i64:64-i128:128-f80:128-n8:16:32:64-S128"
target triple = "x86_64-pc-linux-gnu"

%"class.std::optional" = type { %"struct.std::_Optional_base" }
%"struct.std::_Optional_base" = type { %"struct.std::_Optional_payload" }
%"struct.std::_Optional_payload" = type { %"struct.std::_Optional_payload_base.base", [3 x i8] }
%"struct.std::_Optional_payload_base.base" = type <{ %"union.std::_Optional_payload_base<int>::_Storage", i8 }>
%"union.std::_Optional_payload_base<int>::_Storage" = type { i32 }
%"class.arrow::internal::(anonymous namespace)::ErrnoDetail" = type <{ %"class.arrow::StatusDetail", i32, [4 x i8] }>
%"class.arrow::StatusDetail" = type { ptr }
%"struct.std::_Optional_payload_base" = type <{ %"union.std::_Optional_payload_base<int>::_Storage", i8, [3 x i8] }>

@_ZN5arrow8internal12_GLOBAL__N_118kErrnoDetailTypeIdE = internal constant [19 x i8] c"arrow::ErrnoDetail\00", align 16

; Function Attrs: mustprogress nounwind uwtable
define linkonce_odr void @_ZNSt22_Optional_payload_baseIiE8_StorageIiLb1EEC2Ev(ptr noundef nonnull align 4 dereferenceable(4) %0) unnamed_addr #6 comdat align 2 {
  %2 = alloca ptr, align 8
  store ptr %0, ptr %2, align 8, !tbaa !279
  ret void
}

; Function Attrs: mustprogress nounwind uwtable
define linkonce_odr void @_ZNSt22_Optional_payload_baseIiE8_StorageIiLb1EEC2IJiEEESt10in_place_tDpOT_(ptr noundef nonnull align 4 dereferenceable(4) %0, ptr noundef nonnull align 4 dereferenceable(4) %1) unnamed_addr #6 comdat align 2 {
  %3 = alloca ptr, align 8
  %4 = alloca ptr, align 8
  store ptr %0, ptr %3, align 8, !tbaa !279
  store ptr %1, ptr %4, align 8, !tbaa !20
  %5 = load ptr, ptr %3, align 8
  %6 = load ptr, ptr %4, align 8, !tbaa !20
  %7 = load i32, ptr %6, align 4, !tbaa !3
  store i32 %7, ptr %5, align 4, !tbaa !61
  ret void
}

; Function Attrs: mustprogress nounwind uwtable
define linkonce_odr void @_ZNSt22_Optional_payload_baseIiEC2Ev(ptr noundef nonnull align 4 dereferenceable(5) %0) unnamed_addr #6 comdat align 2 {
  %2 = alloca ptr, align 8
  store ptr %0, ptr %2, align 8, !tbaa !275
  %3 = load ptr, ptr %2, align 8
  %4 = getelementptr inbounds nuw %"struct.std::_Optional_payload_base", ptr %3, i32 0, i32 0
  call void @_ZNSt22_Optional_payload_baseIiE8_StorageIiLb1EEC2Ev(ptr noundef nonnull align 4 dereferenceable(4) %4) #3
  %5 = getelementptr inbounds nuw %"struct.std::_Optional_payload_base", ptr %3, i32 0, i32 1
  store i8 0, ptr %5, align 4, !tbaa !277
  ret void
}

; Function Attrs: mustprogress uwtable
define linkonce_odr void @_ZNSt22_Optional_payload_baseIiEC2IJiEEESt10in_place_tDpOT_(ptr noundef nonnull align 4 dereferenceable(5) %0, ptr noundef nonnull align 4 dereferenceable(4) %1) unnamed_addr #4 comdat align 2 {
  %3 = alloca ptr, align 8
  %4 = alloca ptr, align 8
  store ptr %0, ptr %3, align 8, !tbaa !275
  store ptr %1, ptr %4, align 8, !tbaa !20
  %5 = load ptr, ptr %3, align 8
  %6 = getelementptr inbounds nuw %"struct.std::_Optional_payload_base", ptr %5, i32 0, i32 0
  %7 = load ptr, ptr %4, align 8, !tbaa !20
  call void @_ZNSt22_Optional_payload_baseIiE8_StorageIiLb1EEC2IJiEEESt10in_place_tDpOT_(ptr noundef nonnull align 4 dereferenceable(4) %6, ptr noundef nonnull align 4 dereferenceable(4) %7)
  %8 = getelementptr inbounds nuw %"struct.std::_Optional_payload_base", ptr %5, i32 0, i32 1
  store i8 1, ptr %8, align 4, !tbaa !277
  ret void
}

; Function Attrs: mustprogress nounwind uwtable
define linkonce_odr void @_ZNSt17_Optional_payloadIiLb1ELb1ELb1EEC2Ev(ptr noundef nonnull align 4 dereferenceable(5) %0) unnamed_addr #6 comdat align 2 {
  %2 = alloca ptr, align 8
  store ptr %0, ptr %2, align 8, !tbaa !273
  %3 = load ptr, ptr %2, align 8
  call void @_ZNSt22_Optional_payload_baseIiEC2Ev(ptr noundef nonnull align 4 dereferenceable(5) %3) #3
  ret void
}

; Function Attrs: inlinehint mustprogress uwtable
define linkonce_odr void @_ZNSt17_Optional_payloadIiLb1ELb1ELb1EECI2St22_Optional_payload_baseIiEIJiEEESt10in_place_tDpOT_(ptr noundef nonnull align 4 dereferenceable(5) %0, ptr noundef nonnull align 4 dereferenceable(4) %1) unnamed_addr #7 comdat align 2 {
  %3 = alloca ptr, align 8
  %4 = alloca ptr, align 8
  store ptr %0, ptr %3, align 8, !tbaa !273
  store ptr %1, ptr %4, align 8, !tbaa !20
  %5 = load ptr, ptr %3, align 8
  %6 = load ptr, ptr %4, align 8
  call void @_ZNSt22_Optional_payload_baseIiEC2IJiEEESt10in_place_tDpOT_(ptr noundef nonnull align 4 dereferenceable(5) %5, ptr noundef nonnull align 4 dereferenceable(4) %6)
  ret void
}

; Function Attrs: mustprogress nounwind uwtable
define linkonce_odr void @_ZNSt14_Optional_baseIiLb1ELb1EEC2Ev(ptr noundef nonnull align 4 dereferenceable(8) %0) unnamed_addr #6 comdat align 2 {
  %2 = alloca ptr, align 8
  store ptr %0, ptr %2, align 8, !tbaa !271
  %3 = load ptr, ptr %2, align 8
  %4 = getelementptr inbounds nuw %"struct.std::_Optional_base", ptr %3, i32 0, i32 0
  call void @_ZNSt17_Optional_payloadIiLb1ELb1ELb1EEC2Ev(ptr noundef nonnull align 4 dereferenceable(5) %4) #3
  ret void
}

; Function Attrs: noinline noreturn nounwind uwtable
define linkonce_odr hidden void @__clang_call_terminate(ptr noundef %0) #16 comdat {
  %2 = call ptr @__cxa_begin_catch(ptr %0) #3
  call void @_ZSt9terminatev() #25
  unreachable
}

; Function Attrs: mustprogress uwtable
define linkonce_odr void @_ZNSt14_Optional_baseIiLb1ELb1EEC2IJiETnNSt9enable_ifIX18is_constructible_vIiDpT_EEbE4typeELb0EEESt10in_place_tDpOS3_(ptr noundef nonnull align 4 dereferenceable(8) %0, ptr noundef nonnull align 4 dereferenceable(4) %1) unnamed_addr #4 comdat align 2 {
  %3 = alloca ptr, align 8
  %4 = alloca ptr, align 8
  store ptr %0, ptr %3, align 8, !tbaa !271
  store ptr %1, ptr %4, align 8, !tbaa !20
  %5 = load ptr, ptr %3, align 8
  %6 = getelementptr inbounds nuw %"struct.std::_Optional_base", ptr %5, i32 0, i32 0
  %7 = load ptr, ptr %4, align 8, !tbaa !20
  call void @_ZNSt17_Optional_payloadIiLb1ELb1ELb1EECI2St22_Optional_payload_baseIiEIJiEEESt10in_place_tDpOT_(ptr noundef nonnull align 4 dereferenceable(5) %6, ptr noundef nonnull align 4 dereferenceable(4) %7)
  ret void
}

; Function Attrs: mustprogress nounwind uwtable
define linkonce_odr void @_ZNSt8optionalIiEC2ESt9nullopt_t(ptr noundef nonnull align 4 dereferenceable(8) %0) unnamed_addr #6 comdat align 2 {
  %2 = alloca ptr, align 8
  store ptr %0, ptr %2, align 8, !tbaa !37
  %3 = load ptr, ptr %2, align 8
  call void @_ZNSt14_Optional_baseIiLb1ELb1EEC2Ev(ptr noundef nonnull align 4 dereferenceable(8) %3) #3
  ret void
}

; Function Attrs: mustprogress nounwind uwtable
define linkonce_odr void @_ZNSt8optionalIiEC2IiTnNSt9enable_ifIX7__and_vISt6__not_ISt7is_sameIS0_NSt9remove_cvINSt16remove_referenceIT_E4typeEE4typeEEES3_IS4_ISt10in_place_tSB_EESt16is_constructibleIiJS7_EESt14is_convertibleIS7_iEEEbE4typeELb1EEEOS7_(ptr noundef nonnull align 4 dereferenceable(8) %0, ptr noundef nonnull align 4 dereferenceable(4) %1) unnamed_addr #6 comdat align 2 personality ptr @__gxx_personality_v0 {
  %3 = alloca ptr, align 8
  %4 = alloca ptr, align 8
  store ptr %0, ptr %3, align 8, !tbaa !37
  store ptr %1, ptr %4, align 8, !tbaa !20
  %5 = load ptr, ptr %3, align 8
  %6 = load ptr, ptr %4, align 8, !tbaa !20
  invoke void @_ZNSt14_Optional_baseIiLb1ELb1EEC2IJiETnNSt9enable_ifIX18is_constructible_vIiDpT_EEbE4typeELb0EEESt10in_place_tDpOS3_(ptr noundef nonnull align 4 dereferenceable(8) %5, ptr noundef nonnull align 4 dereferenceable(4) %6)
          to label %7 unwind label %8

7:                                                ; preds = %2
  ret void

8:                                                ; preds = %2
  %9 = landingpad { ptr, i32 }
          catch ptr null
  %10 = extractvalue { ptr, i32 } %9, 0
  call void @__clang_call_terminate(ptr %10) #25
  unreachable
}

; Function Attrs: mustprogress nounwind uwtable
define internal noundef i32 @_ZNK5arrow8internal12_GLOBAL__N_111ErrnoDetail6errnumEv(ptr noundef nonnull align 8 dereferenceable(12) %0) #6 align 2 {
  %2 = alloca ptr, align 8
  store ptr %0, ptr %2, align 8, !tbaa !32
  %3 = load ptr, ptr %2, align 8
  %4 = getelementptr inbounds nuw %"class.arrow::internal::(anonymous namespace)::ErrnoDetail", ptr %3, i32 0, i32 1
  %5 = load i32, ptr %4, align 8, !tbaa !34
  ret i32 %5
}

; Function Attrs: inlinehint mustprogress nounwind uwtable
define internal noundef nonnull align 8 dereferenceable(12) ptr @_ZN5arrow8internal12checked_castIRKNS0_12_GLOBAL__N_111ErrnoDetailERKNS_12StatusDetailEEET_OT0_(ptr noundef nonnull align 8 dereferenceable(8) %0) #8 {
  %2 = alloca ptr, align 8
  store ptr %0, ptr %2, align 8, !tbaa !28
  %3 = load ptr, ptr %2, align 8, !tbaa !28
  ret ptr %3
}

; Function Attrs: mustprogress uwtable
define i64 @_ZN5arrow8internal21ErrnoFromStatusDetailERKNS_12StatusDetailE(ptr noundef nonnull align 8 dereferenceable(8) %0) #4 {
  %2 = alloca %"class.std::optional", align 4
  %3 = alloca ptr, align 8
  %4 = alloca i32, align 4
  store ptr %0, ptr %3, align 8, !tbaa !28
  %5 = load ptr, ptr %3, align 8, !tbaa !28
  %6 = load ptr, ptr %5, align 8, !tbaa !30
  %7 = getelementptr inbounds ptr, ptr %6, i64 2
  %8 = load ptr, ptr %7, align 8
  %9 = call noundef ptr %8(ptr noundef nonnull align 8 dereferenceable(8) %5)
  %10 = icmp eq ptr %9, @_ZN5arrow8internal12_GLOBAL__N_118kErrnoDetailTypeIdE
  br i1 %10, label %11, label %15

11:                                               ; preds = %1
  call void @llvm.lifetime.start.p0(i64 4, ptr %4) #3
  %12 = load ptr, ptr %3, align 8, !tbaa !28
  %13 = call noundef nonnull align 8 dereferenceable(12) ptr @_ZN5arrow8internal12checked_castIRKNS0_12_GLOBAL__N_111ErrnoDetailERKNS_12StatusDetailEEET_OT0_(ptr noundef nonnull align 8 dereferenceable(8) %12)
  %14 = call noundef i32 @_ZNK5arrow8internal12_GLOBAL__N_111ErrnoDetail6errnumEv(ptr noundef nonnull align 8 dereferenceable(12) %13)
  store i32 %14, ptr %4, align 4, !tbaa !3
  call void @_ZNSt8optionalIiEC2IiTnNSt9enable_ifIX7__and_vISt6__not_ISt7is_sameIS0_NSt9remove_cvINSt16remove_referenceIT_E4typeEE4typeEEES3_IS4_ISt10in_place_tSB_EESt16is_constructibleIiJS7_EESt14is_convertibleIS7_iEEEbE4typeELb1EEEOS7_(ptr noundef nonnull align 4 dereferenceable(8) %2, ptr noundef nonnull align 4 dereferenceable(4) %4) #3
  call void @llvm.lifetime.end.p0(i64 4, ptr %4) #3
  br label %16

15:                                               ; preds = %1
  call void @_ZNSt8optionalIiEC2ESt9nullopt_t(ptr noundef nonnull align 4 dereferenceable(8) %2) #3
  br label %16

16:                                               ; preds = %15, %11
  %17 = getelementptr inbounds nuw %"class.std::optional", ptr %2, i32 0, i32 0
  %18 = getelementptr inbounds nuw %"struct.std::_Optional_base", ptr %17, i32 0, i32 0
  %19 = load i64, ptr %18, align 4
  ret i64 %19
}